; Function Attrs: mustprogress nounwind uwtable
define internal fastcc void @_ZNSt12_Destroy_auxILb0EE9__destroyIPN5arrow12_GLOBAL__N_114SchemaExporterEEEvT_S6_(ptr noundef %__first, ptr noundef readnone %__last) unnamed_addr #1 align 2 {
entry:
  %cmp.not3 = icmp eq ptr %__first, %__last
  br i1 %cmp.not3, label %for.end, label %for.body

for.body:                                         ; preds = %entry, %for.body
  %__first.addr.04 = phi ptr [ %incdec.ptr, %for.body ], [ %__first, %entry ]
  tail call fastcc void @_ZN5arrow12_GLOBAL__N_114SchemaExporterD2Ev(ptr noundef nonnull align 8 dereferenceable(384) %__first.addr.04) #24
  %incdec.ptr = getelementptr inbounds i8, ptr %__first.addr.04, i64 384
  %cmp.not = icmp eq ptr %incdec.ptr, %__last
  br i1 %cmp.not, label %for.end, label %for.body, !llvm.loop !383

for.end:                                          ; preds = %for.body, %entry
  ret void
}